target datalayout = "e-m:e-p270:32:32-p271:32:32-p272:64:64-i64:64-i128:128-f80:128-n8:16:32:64-S128"
target triple = "x86_64-pc-linux-gnu"

%"struct.cv::ChessBoardQuad" = type { i32, i32, i32, i32, i8, float, [4 x ptr], [4 x ptr] }
%"struct.cv::ChessBoardCorner" = type { %"class.cv::Point_", i32, i32, [4 x ptr] }
%"class.cv::Point_" = type { float, float }

; Function Attrs: inlinehint mustprogress nounwind uwtable
define internal noundef zeroext i1 @_ZN2cveqIfEEbRKNS_6Point_IT_EES5_(ptr noundef nonnull align 4 dereferenceable(8) %0, ptr noundef nonnull align 4 dereferenceable(8) %1) #6 {
  %3 = alloca ptr, align 8
  %4 = alloca ptr, align 8
  store ptr %0, ptr %3, align 8, !tbaa !98
  store ptr %1, ptr %4, align 8, !tbaa !98
  %5 = load ptr, ptr %3, align 8, !tbaa !98
  %6 = getelementptr inbounds nuw %"class.cv::Point_", ptr %5, i32 0, i32 0
  %7 = load float, ptr %6, align 4, !tbaa !102
  %8 = load ptr, ptr %4, align 8, !tbaa !98
  %9 = getelementptr inbounds nuw %"class.cv::Point_", ptr %8, i32 0, i32 0
  %10 = load float, ptr %9, align 4, !tbaa !102
  %11 = fcmp oeq float %7, %10
  br i1 %11, label %12, label %20

12:                                               ; preds = %2
  %13 = load ptr, ptr %3, align 8, !tbaa !98
  %14 = getelementptr inbounds nuw %"class.cv::Point_", ptr %13, i32 0, i32 1
  %15 = load float, ptr %14, align 4, !tbaa !104
  %16 = load ptr, ptr %4, align 8, !tbaa !98
  %17 = getelementptr inbounds nuw %"class.cv::Point_", ptr %16, i32 0, i32 1
  %18 = load float, ptr %17, align 4, !tbaa !104
  %19 = fcmp oeq float %15, %18
  br label %20

20:                                               ; preds = %12, %2
  %21 = phi i1 [ false, %2 ], [ %19, %12 ]
  ret i1 %21
}

; Function Attrs: mustprogress uwtable
define hidden void @_ZN2cv18ChessBoardDetector9orderQuadERNS_14ChessBoardQuadERNS_16ChessBoardCornerEi(ptr noundef nonnull align 8 dereferenceable(3204) %0, ptr noundef nonnull align 8 dereferenceable(88) %1, ptr noundef nonnull align 8 dereferenceable(48) %2, i32 noundef %3) #4 align 2 {
  %5 = alloca ptr, align 8
  %6 = alloca ptr, align 8
  %7 = alloca ptr, align 8
  %8 = alloca i32, align 4
  %9 = alloca i32, align 4
  %10 = alloca ptr, align 8
  %11 = alloca ptr, align 8
  %12 = alloca i32, align 4
  store ptr %0, ptr %5, align 8, !tbaa !8
  store ptr %1, ptr %6, align 8, !tbaa !52
  store ptr %2, ptr %7, align 8, !tbaa !53
  store i32 %3, ptr %8, align 4, !tbaa !47
  call void @llvm.lifetime.start.p0(i64 4, ptr %9) #3
  store i32 0, ptr %9, align 4, !tbaa !47
  br label %13

13:                                               ; preds = %29, %4
  %14 = load i32, ptr %9, align 4, !tbaa !47
  %15 = icmp slt i32 %14, 4
  br i1 %15, label %16, label %32

16:                                               ; preds = %13
  %17 = load ptr, ptr %6, align 8, !tbaa !52
  %18 = getelementptr inbounds nuw %"struct.cv::ChessBoardQuad", ptr %17, i32 0, i32 6
  %19 = load i32, ptr %9, align 4, !tbaa !47
  %20 = sext i32 %19 to i64
  %21 = getelementptr inbounds [4 x ptr], ptr %18, i64 0, i64 %20
  %22 = load ptr, ptr %21, align 8, !tbaa !53
  %23 = getelementptr inbounds nuw %"struct.cv::ChessBoardCorner", ptr %22, i32 0, i32 0
  %24 = load ptr, ptr %7, align 8, !tbaa !53
  %25 = getelementptr inbounds nuw %"struct.cv::ChessBoardCorner", ptr %24, i32 0, i32 0
  %26 = call noundef zeroext i1 @_ZN2cveqIfEEbRKNS_6Point_IT_EES5_(ptr noundef nonnull align 4 dereferenceable(8) %23, ptr noundef nonnull align 4 dereferenceable(8) %25)
  br i1 %26, label %27, label %28

27:                                               ; preds = %16
  br label %32

28:                                               ; preds = %16
  br label %29

29:                                               ; preds = %28
  %30 = load i32, ptr %9, align 4, !tbaa !47
  %31 = add nsw i32 %30, 1
  store i32 %31, ptr %9, align 4, !tbaa !47
  br label %13, !llvm.loop !219

32:                                               ; preds = %27, %13
  br label %33

33:                                               ; preds = %78, %32
  %34 = load i32, ptr %9, align 4, !tbaa !47
  %35 = load i32, ptr %8, align 4, !tbaa !47
  %36 = icmp ne i32 %34, %35
  br i1 %36, label %37, label %90

37:                                               ; preds = %33
  call void @llvm.lifetime.start.p0(i64 8, ptr %10) #3
  %38 = load ptr, ptr %6, align 8, !tbaa !52
  %39 = getelementptr inbounds nuw %"struct.cv::ChessBoardQuad", ptr %38, i32 0, i32 6
  %40 = getelementptr inbounds [4 x ptr], ptr %39, i64 0, i64 3
  %41 = load ptr, ptr %40, align 8, !tbaa !53
  store ptr %41, ptr %10, align 8, !tbaa !53
  call void @llvm.lifetime.start.p0(i64 8, ptr %11) #3
  %42 = load ptr, ptr %6, align 8, !tbaa !52
  %43 = getelementptr inbounds nuw %"struct.cv::ChessBoardQuad", ptr %42, i32 0, i32 7
  %44 = getelementptr inbounds [4 x ptr], ptr %43, i64 0, i64 3
  %45 = load ptr, ptr %44, align 8, !tbaa !52
  store ptr %45, ptr %11, align 8, !tbaa !52
  call void @llvm.lifetime.start.p0(i64 4, ptr %12) #3
  store i32 3, ptr %12, align 4, !tbaa !47
  br label %46

46:                                               ; preds = %75, %37
  %47 = load i32, ptr %12, align 4, !tbaa !47
  %48 = icmp sgt i32 %47, 0
  br i1 %48, label %50, label %49

49:                                               ; preds = %46
  call void @llvm.lifetime.end.p0(i64 4, ptr %12) #3
  br label %78

50:                                               ; preds = %46
  %51 = load ptr, ptr %6, align 8, !tbaa !52
  %52 = getelementptr inbounds nuw %"struct.cv::ChessBoardQuad", ptr %51, i32 0, i32 6
  %53 = load i32, ptr %12, align 4, !tbaa !47
  %54 = sub nsw i32 %53, 1
  %55 = sext i32 %54 to i64
  %56 = getelementptr inbounds [4 x ptr], ptr %52, i64 0, i64 %55
  %57 = load ptr, ptr %56, align 8, !tbaa !53
  %58 = load ptr, ptr %6, align 8, !tbaa !52
  %59 = getelementptr inbounds nuw %"struct.cv::ChessBoardQuad", ptr %58, i32 0, i32 6
  %60 = load i32, ptr %12, align 4, !tbaa !47
  %61 = sext i32 %60 to i64
  %62 = getelementptr inbounds [4 x ptr], ptr %59, i64 0, i64 %61
  store ptr %57, ptr %62, align 8, !tbaa !53
  %63 = load ptr, ptr %6, align 8, !tbaa !52
  %64 = getelementptr inbounds nuw %"struct.cv::ChessBoardQuad", ptr %63, i32 0, i32 7
  %65 = load i32, ptr %12, align 4, !tbaa !47
  %66 = sub nsw i32 %65, 1
  %67 = sext i32 %66 to i64
  %68 = getelementptr inbounds [4 x ptr], ptr %64, i64 0, i64 %67
  %69 = load ptr, ptr %68, align 8, !tbaa !52
  %70 = load ptr, ptr %6, align 8, !tbaa !52
  %71 = getelementptr inbounds nuw %"struct.cv::ChessBoardQuad", ptr %70, i32 0, i32 7
  %72 = load i32, ptr %12, align 4, !tbaa !47
  %73 = sext i32 %72 to i64
  %74 = getelementptr inbounds [4 x ptr], ptr %71, i64 0, i64 %73
  store ptr %69, ptr %74, align 8, !tbaa !52
  br label %75

75:                                               ; preds = %50
  %76 = load i32, ptr %12, align 4, !tbaa !47
  %77 = add nsw i32 %76, -1
  store i32 %77, ptr %12, align 4, !tbaa !47
  br label %46, !llvm.loop !220

78:                                               ; preds = %49
  %79 = load ptr, ptr %10, align 8, !tbaa !53
  %80 = load ptr, ptr %6, align 8, !tbaa !52
  %81 = getelementptr inbounds nuw %"struct.cv::ChessBoardQuad", ptr %80, i32 0, i32 6
  %82 = getelementptr inbounds [4 x ptr], ptr %81, i64 0, i64 0
  store ptr %79, ptr %82, align 8, !tbaa !53
  %83 = load ptr, ptr %11, align 8, !tbaa !52
  %84 = load ptr, ptr %6, align 8, !tbaa !52
  %85 = getelementptr inbounds nuw %"struct.cv::ChessBoardQuad", ptr %84, i32 0, i32 7
  %86 = getelementptr inbounds [4 x ptr], ptr %85, i64 0, i64 0
  store ptr %83, ptr %86, align 8, !tbaa !52
  %87 = load i32, ptr %9, align 4, !tbaa !47
  %88 = add nsw i32 %87, 1
  %89 = and i32 %88, 3
  store i32 %89, ptr %9, align 4, !tbaa !47
  call void @llvm.lifetime.end.p0(i64 8, ptr %11) #3
  call void @llvm.lifetime.end.p0(i64 8, ptr %10) #3
  br label %33, !llvm.loop !221

90:                                               ; preds = %33
  call void @llvm.lifetime.end.p0(i64 4, ptr %9) #3
  ret void
}