; Function Attrs: mustprogress nofree norecurse nosync nounwind memory(read, argmem: readwrite, inaccessiblemem: none) uwtable
define hidden void @_ZN2cv18ChessBoardDetector9orderQuadERNS_14ChessBoardQuadERNS_16ChessBoardCornerEi(ptr noundef nonnull readnone align 8 captures(none) dereferenceable(3204) %0, ptr noundef nonnull align 8 captures(none) dereferenceable(88) %1, ptr noundef nonnull readonly align 8 captures(none) dereferenceable(48) %2, i32 noundef %3) local_unnamed_addr #12 align 2 {
  %5 = getelementptr inbounds nuw i8, ptr %1, i64 24
  %.val25 = load float, ptr %2, align 8, !tbaa !113
  %6 = getelementptr inbounds nuw i8, ptr %2, i64 4
  %.val26 = load float, ptr %6, align 4
  br label %7

7:                                                ; preds = %4, %14
  %indvars.iv = phi i64 [ 0, %4 ], [ %indvars.iv.next, %14 ]
  %8 = getelementptr inbounds nuw [4 x ptr], ptr %5, i64 0, i64 %indvars.iv
  %9 = load ptr, ptr %8, align 8, !tbaa !53
  %.val = load float, ptr %9, align 4, !tbaa !113
  %10 = getelementptr i8, ptr %9, i64 4
  %.val24 = load float, ptr %10, align 4
  %11 = fcmp oeq float %.val, %.val25
  %12 = fcmp oeq float %.val24, %.val26
  %13 = select i1 %11, i1 %12, i1 false
  br i1 %13, label %.split.loop.exit, label %14

14:                                               ; preds = %7
  %indvars.iv.next = add nuw nsw i64 %indvars.iv, 1
  %exitcond.not = icmp eq i64 %indvars.iv.next, 4
  br i1 %exitcond.not, label %.split.loop.exit36, label %7, !llvm.loop !280

.split.loop.exit:                                 ; preds = %7
  %15 = trunc nuw nsw i64 %indvars.iv to i32
  br label %.split.loop.exit36

.split.loop.exit36:                               ; preds = %14, %.split.loop.exit
  %.023.lcssa = phi i32 [ %15, %.split.loop.exit ], [ 4, %14 ]
  %.not29 = icmp eq i32 %.023.lcssa, %3
  br i1 %.not29, label %._crit_edge, label %.lr.ph

.lr.ph:                                           ; preds = %.split.loop.exit36
  %16 = getelementptr inbounds nuw i8, ptr %1, i64 48
  %17 = getelementptr inbounds nuw i8, ptr %1, i64 56
  %18 = getelementptr inbounds nuw i8, ptr %1, i64 80
  %scevgep = getelementptr inbounds nuw i8, ptr %1, i64 32
  br label %19

19:                                               ; preds = %.lr.ph, %22
  %.130 = phi i32 [ %.023.lcssa, %.lr.ph ], [ %24, %22 ]
  %20 = load ptr, ptr %16, align 8, !tbaa !53
  %21 = load ptr, ptr %18, align 8, !tbaa !121
  tail call void @llvm.memmove.p0.p0.i64(ptr noundef nonnull align 8 dereferenceable(24) %scevgep, ptr noundef nonnull align 8 dereferenceable(24) %5, i64 24, i1 false), !tbaa !53
  br label %25

22:                                               ; preds = %25
  store ptr %20, ptr %5, align 8, !tbaa !53
  store ptr %21, ptr %17, align 8, !tbaa !121
  %23 = add nuw nsw i32 %.130, 1
  %24 = and i32 %23, 3
  %.not = icmp eq i32 %24, %3
  br i1 %.not, label %._crit_edge, label %19, !llvm.loop !281

25:                                               ; preds = %19, %25
  %indvars.iv33 = phi i64 [ 3, %19 ], [ %indvars.iv.next34, %25 ]
  %indvars.iv.next34 = add nsw i64 %indvars.iv33, -1
  %26 = getelementptr inbounds nuw [4 x ptr], ptr %17, i64 0, i64 %indvars.iv.next34
  %27 = load ptr, ptr %26, align 8, !tbaa !121
  %28 = getelementptr inbounds nuw [4 x ptr], ptr %17, i64 0, i64 %indvars.iv33
  store ptr %27, ptr %28, align 8, !tbaa !121
  %29 = icmp ugt i64 %indvars.iv33, 1
  br i1 %29, label %25, label %22, !llvm.loop !296

._crit_edge:                                      ; preds = %22, %.split.loop.exit36
  ret void
}